target datalayout = "e-m:e-p270:32:32-p271:32:32-p272:64:64-i64:64-i128:128-f80:128-n8:16:32:64-S128"
target triple = "x86_64-pc-linux-gnu"

%class.uint_set = type { %class.svector }
%class.svector = type { %class.vector }
%class.vector = type { ptr }
%class.state_graph = type { %class.uint_set, %class.uint_set, %class.uint_set, %class.uint_set, %class.uint_set, %class.basic_union_find, %class.u_map, %class.u_map, %class.u_map, %"struct.state_graph::state_pp" }
%class.basic_union_find = type { %class.svector, %class.svector, %class.svector }
%class.u_map = type { %class.map }
%class.map = type { %class.table2map }
%class.table2map = type { %class.core_hashtable }
%class.core_hashtable = type <{ ptr, i32, i32, i32, [4 x i8] }>
%"struct.state_graph::state_pp" = type { ptr, ptr }

; Function Attrs: mustprogress nounwind uwtable
define linkonce_odr hidden noundef i32 @_ZNK6vectorIjLb0EjE4sizeEv(ptr noundef nonnull align 8 dereferenceable(8) %0) #8 comdat align 2 {
  %2 = alloca i32, align 4
  %3 = alloca ptr, align 8
  store ptr %0, ptr %3, align 8, !tbaa !25
  %4 = load ptr, ptr %3, align 8
  %5 = getelementptr inbounds nuw %class.vector, ptr %4, i32 0, i32 0
  %6 = load ptr, ptr %5, align 8, !tbaa !51
  %7 = icmp eq ptr %6, null
  br i1 %7, label %8, label %9

8:                                                ; preds = %1
  store i32 0, ptr %2, align 4
  br label %14

9:                                                ; preds = %1
  %10 = getelementptr inbounds nuw %class.vector, ptr %4, i32 0, i32 0
  %11 = load ptr, ptr %10, align 8, !tbaa !51
  %12 = getelementptr inbounds i32, ptr %11, i64 -1
  %13 = load i32, ptr %12, align 4, !tbaa !8
  store i32 %13, ptr %2, align 4
  br label %14

14:                                               ; preds = %9, %8
  %15 = load i32, ptr %2, align 4
  ret i32 %15
}

; Function Attrs: mustprogress nounwind uwtable
define linkonce_odr hidden noundef nonnull align 4 dereferenceable(4) ptr @_ZNK6vectorIjLb0EjEixEj(ptr noundef nonnull align 8 dereferenceable(8) %0, i32 noundef %1) #8 comdat align 2 {
  %3 = alloca ptr, align 8
  %4 = alloca i32, align 4
  store ptr %0, ptr %3, align 8, !tbaa !25
  store i32 %1, ptr %4, align 4, !tbaa !8
  %5 = load ptr, ptr %3, align 8
  %6 = getelementptr inbounds nuw %class.vector, ptr %5, i32 0, i32 0
  %7 = load ptr, ptr %6, align 8, !tbaa !51
  %8 = load i32, ptr %4, align 4, !tbaa !8
  %9 = zext i32 %8 to i64
  %10 = getelementptr inbounds nuw i32, ptr %7, i64 %9
  ret ptr %10
}

; Function Attrs: mustprogress uwtable
define linkonce_odr hidden noundef i32 @_ZNK16basic_union_find12get_num_varsEv(ptr noundef nonnull align 8 dereferenceable(24) %0) #4 comdat align 2 {
  %2 = alloca ptr, align 8
  store ptr %0, ptr %2, align 8, !tbaa !12
  %3 = load ptr, ptr %2, align 8
  %4 = getelementptr inbounds nuw %class.basic_union_find, ptr %3, i32 0, i32 0
  %5 = call noundef i32 @_ZNK6vectorIjLb0EjE4sizeEv(ptr noundef nonnull align 8 dereferenceable(8) %4)
  ret i32 %5
}

; Function Attrs: mustprogress uwtable
define linkonce_odr hidden noundef zeroext i1 @_ZNK8uint_set8containsEj(ptr noundef nonnull align 8 dereferenceable(8) %0, i32 noundef %1) #4 comdat align 2 {
  %3 = alloca ptr, align 8
  %4 = alloca i32, align 4
  %5 = alloca i32, align 4
  store ptr %0, ptr %3, align 8, !tbaa !14
  store i32 %1, ptr %4, align 4, !tbaa !8
  %6 = load ptr, ptr %3, align 8
  call void @llvm.lifetime.start.p0(i64 4, ptr %5) #3
  %7 = load i32, ptr %4, align 4, !tbaa !8
  %8 = lshr i32 %7, 5
  store i32 %8, ptr %5, align 4, !tbaa !8
  %9 = load i32, ptr %5, align 4, !tbaa !8
  %10 = call noundef i32 @_ZNK6vectorIjLb0EjE4sizeEv(ptr noundef nonnull align 8 dereferenceable(8) %6)
  %11 = icmp ult i32 %9, %10
  br i1 %11, label %12, label %21

12:                                               ; preds = %2
  %13 = load i32, ptr %5, align 4, !tbaa !8
  %14 = call noundef nonnull align 4 dereferenceable(4) ptr @_ZNK6vectorIjLb0EjEixEj(ptr noundef nonnull align 8 dereferenceable(8) %6, i32 noundef %13)
  %15 = load i32, ptr %14, align 4, !tbaa !8
  %16 = load i32, ptr %4, align 4, !tbaa !8
  %17 = and i32 %16, 31
  %18 = shl i32 1, %17
  %19 = and i32 %15, %18
  %20 = icmp ne i32 %19, 0
  br label %21

21:                                               ; preds = %12, %2
  %22 = phi i1 [ false, %2 ], [ %20, %12 ]
  call void @llvm.lifetime.end.p0(i64 4, ptr %5) #3
  ret i1 %22
}

; Function Attrs: mustprogress uwtable
define linkonce_odr hidden noundef i32 @_ZNK16basic_union_find4findEj(ptr noundef nonnull align 8 dereferenceable(24) %0, i32 noundef %1) #4 comdat align 2 {
  %3 = alloca i32, align 4
  %4 = alloca ptr, align 8
  %5 = alloca i32, align 4
  %6 = alloca i32, align 4
  %7 = alloca i32, align 4
  store ptr %0, ptr %4, align 8, !tbaa !12
  store i32 %1, ptr %5, align 4, !tbaa !8
  %8 = load ptr, ptr %4, align 8
  %9 = load i32, ptr %5, align 4, !tbaa !8
  %10 = call noundef i32 @_ZNK16basic_union_find12get_num_varsEv(ptr noundef nonnull align 8 dereferenceable(24) %8)
  %11 = icmp uge i32 %9, %10
  br i1 %11, label %12, label %14

12:                                               ; preds = %2
  %13 = load i32, ptr %5, align 4, !tbaa !8
  store i32 %13, ptr %3, align 4
  br label %30

14:                                               ; preds = %2
  br label %15

15:                                               ; preds = %14, %29
  call void @llvm.lifetime.start.p0(i64 4, ptr %6) #3
  %16 = getelementptr inbounds nuw %class.basic_union_find, ptr %8, i32 0, i32 0
  %17 = load i32, ptr %5, align 4, !tbaa !8
  %18 = call noundef nonnull align 4 dereferenceable(4) ptr @_ZNK6vectorIjLb0EjEixEj(ptr noundef nonnull align 8 dereferenceable(8) %16, i32 noundef %17)
  %19 = load i32, ptr %18, align 4, !tbaa !8
  store i32 %19, ptr %6, align 4, !tbaa !8
  %20 = load i32, ptr %6, align 4, !tbaa !8
  %21 = load i32, ptr %5, align 4, !tbaa !8
  %22 = icmp eq i32 %20, %21
  br i1 %22, label %23, label %25

23:                                               ; preds = %15
  %24 = load i32, ptr %5, align 4, !tbaa !8
  store i32 %24, ptr %3, align 4
  store i32 1, ptr %7, align 4
  br label %27

25:                                               ; preds = %15
  %26 = load i32, ptr %6, align 4, !tbaa !8
  store i32 %26, ptr %5, align 4, !tbaa !8
  store i32 0, ptr %7, align 4
  br label %27

27:                                               ; preds = %25, %23
  call void @llvm.lifetime.end.p0(i64 4, ptr %6) #3
  %28 = load i32, ptr %7, align 4
  switch i32 %28, label %32 [
    i32 0, label %29
    i32 1, label %30
  ]

29:                                               ; preds = %27
  br label %15, !llvm.loop !42

30:                                               ; preds = %27, %12
  %31 = load i32, ptr %3, align 4
  ret i32 %31

32:                                               ; preds = %27
  unreachable
}

; Function Attrs: mustprogress uwtable
define hidden noundef zeroext i1 @_ZNK11state_graph7is_liveEj(ptr noundef nonnull align 8 dereferenceable(152) %0, i32 noundef %1) #4 align 2 {
  %3 = alloca ptr, align 8
  %4 = alloca i32, align 4
  store ptr %0, ptr %3, align 8, !tbaa !3
  store i32 %1, ptr %4, align 4, !tbaa !8
  %5 = load ptr, ptr %3, align 8
  %6 = getelementptr inbounds nuw %class.state_graph, ptr %5, i32 0, i32 0
  %7 = getelementptr inbounds nuw %class.state_graph, ptr %5, i32 0, i32 5
  %8 = load i32, ptr %4, align 4, !tbaa !8
  %9 = call noundef i32 @_ZNK16basic_union_find4findEj(ptr noundef nonnull align 8 dereferenceable(24) %7, i32 noundef %8)
  %10 = call noundef zeroext i1 @_ZNK8uint_set8containsEj(ptr noundef nonnull align 8 dereferenceable(8) %6, i32 noundef %9)
  ret i1 %10
}