; Function Attrs: mustprogress nofree norecurse nosync nounwind willreturn memory(read, inaccessiblemem: none) uwtable
define hidden noundef zeroext i1 @_ZNK11state_graph7is_liveEj(ptr noundef nonnull readonly align 8 captures(none) dereferenceable(152) %0, i32 noundef %1) local_unnamed_addr #8 align 2 {
  %3 = getelementptr inbounds nuw i8, ptr %0, i64 40
  %4 = load ptr, ptr %3, align 8, !tbaa !3
  %5 = icmp eq ptr %4, null
  br i1 %5, label %_ZNK16basic_union_find4findEj.exit, label %_ZNK16basic_union_find12get_num_varsEv.exit.i

_ZNK16basic_union_find12get_num_varsEv.exit.i:    ; preds = %2
  %6 = getelementptr inbounds i8, ptr %4, i64 -4
  %7 = load i32, ptr %6, align 4, !tbaa !9
  %.not.i = icmp ult i32 %1, %7
  br i1 %.not.i, label %.preheader.i, label %_ZNK16basic_union_find4findEj.exit

.preheader.i:                                     ; preds = %_ZNK16basic_union_find12get_num_varsEv.exit.i, %.preheader.i
  %.010.i = phi i32 [ %10, %.preheader.i ], [ %1, %_ZNK16basic_union_find12get_num_varsEv.exit.i ]
  %8 = zext i32 %.010.i to i64
  %9 = getelementptr inbounds nuw i32, ptr %4, i64 %8
  %10 = load i32, ptr %9, align 4, !tbaa !9
  %.not17.i = icmp eq i32 %10, %.010.i
  br i1 %.not17.i, label %_ZNK16basic_union_find4findEj.exit, label %.preheader.i

_ZNK16basic_union_find4findEj.exit:               ; preds = %.preheader.i, %2, %_ZNK16basic_union_find12get_num_varsEv.exit.i
  %.09.i = phi i32 [ %1, %_ZNK16basic_union_find12get_num_varsEv.exit.i ], [ %1, %2 ], [ %.010.i, %.preheader.i ]
  %11 = lshr i32 %.09.i, 5
  %12 = load ptr, ptr %0, align 8, !tbaa !3
  %13 = icmp eq ptr %12, null
  br i1 %13, label %_ZNK8uint_set8containsEj.exit, label %_ZNK6vectorIjLb0EjE4sizeEv.exit.i

_ZNK6vectorIjLb0EjE4sizeEv.exit.i:                ; preds = %_ZNK16basic_union_find4findEj.exit
  %14 = getelementptr inbounds i8, ptr %12, i64 -4
  %15 = load i32, ptr %14, align 4, !tbaa !9
  %16 = icmp ult i32 %11, %15
  br i1 %16, label %17, label %_ZNK8uint_set8containsEj.exit

17:                                               ; preds = %_ZNK6vectorIjLb0EjE4sizeEv.exit.i
  %18 = zext nneg i32 %11 to i64
  %19 = getelementptr inbounds nuw i32, ptr %12, i64 %18
  %20 = load i32, ptr %19, align 4, !tbaa !9
  %21 = and i32 %.09.i, 31
  %22 = shl nuw i32 1, %21
  %23 = and i32 %20, %22
  %24 = icmp ne i32 %23, 0
  br label %_ZNK8uint_set8containsEj.exit

_ZNK8uint_set8containsEj.exit:                    ; preds = %_ZNK16basic_union_find4findEj.exit, %_ZNK6vectorIjLb0EjE4sizeEv.exit.i, %17
  %25 = phi i1 [ false, %_ZNK6vectorIjLb0EjE4sizeEv.exit.i ], [ %24, %17 ], [ false, %_ZNK16basic_union_find4findEj.exit ]
  ret i1 %25
}